; ModuleID = '44/139.c'
source_filename = "44/139.c"
target datalayout = "e-m:e-p270:32:32-p271:32:32-p272:64:64-i64:64-f80:128-n8:16:32:64-S128"
target triple = "x86_64-pc-linux-gnu"

@.str = private unnamed_addr constant [3 x i8] c"%d\00", align 1
@.str.1 = private unnamed_addr constant [4 x i8] c"%d\0A\00", align 1

; Function Attrs: noinline nounwind uwtable
define dso_local i32 @fanxu(i32 %0) #0 {
  %2 = alloca i32, align 4
  %3 = alloca i32, align 4
  %4 = alloca i32, align 4
  %5 = alloca [10 x i32], align 16
  %6 = alloca i32, align 4
  %7 = alloca i32, align 4
  %8 = alloca i32, align 4
  store i32 %0, i32* %2, align 4
  store i32 0, i32* %3, align 4
  store i32 10, i32* %6, align 4
  store i32 0, i32* %4, align 4
  br label %9

9:                                                ; preds = %37, %1
  %10 = load i32, i32* %4, align 4
  %11 = icmp slt i32 %10, 10
  br i1 %11, label %12, label %40

12:                                               ; preds = %9
  %13 = load i32, i32* %2, align 4
  %14 = load i32, i32* %6, align 4
  %15 = srem i32 %13, %14
  %16 = load i32, i32* %6, align 4
  %17 = sdiv i32 %16, 10
  %18 = sdiv i32 %15, %17
  %19 = load i32, i32* %4, align 4
  %20 = sext i32 %19 to i64
  %21 = getelementptr inbounds [10 x i32], [10 x i32]* %5, i64 0, i64 %20
  store i32 %18, i32* %21, align 4
  %22 = load i32, i32* %2, align 4
  %23 = load i32, i32* %6, align 4
  %24 = sdiv i32 %23, 10
  %25 = load i32, i32* %4, align 4
  %26 = sext i32 %25 to i64
  %27 = getelementptr inbounds [10 x i32], [10 x i32]* %5, i64 0, i64 %26
  %28 = load i32, i32* %27, align 4
  %29 = mul nsw i32 %24, %28
  %30 = sub nsw i32 %22, %29
  store i32 %30, i32* %2, align 4
  %31 = load i32, i32* %2, align 4
  %32 = icmp eq i32 %31, 0
  br i1 %32, label %33, label %34

33:                                               ; preds = %12
  br label %40

34:                                               ; preds = %12
  %35 = load i32, i32* %6, align 4
  %36 = mul nsw i32 %35, 10
  store i32 %36, i32* %6, align 4
  br label %37

37:                                               ; preds = %34
  %38 = load i32, i32* %4, align 4
  %39 = add nsw i32 %38, 1
  store i32 %39, i32* %4, align 4
  br label %9

40:                                               ; preds = %33, %9
  store i32 1, i32* %8, align 4
  store i32 0, i32* %7, align 4
  br label %41

41:                                               ; preds = %58, %40
  %42 = load i32, i32* %7, align 4
  %43 = load i32, i32* %4, align 4
  %44 = icmp sle i32 %42, %43
  br i1 %44, label %45, label %61

45:                                               ; preds = %41
  %46 = load i32, i32* %4, align 4
  %47 = load i32, i32* %7, align 4
  %48 = sub nsw i32 %46, %47
  %49 = sext i32 %48 to i64
  %50 = getelementptr inbounds [10 x i32], [10 x i32]* %5, i64 0, i64 %49
  %51 = load i32, i32* %50, align 4
  %52 = load i32, i32* %8, align 4
  %53 = mul nsw i32 %51, %52
  %54 = load i32, i32* %3, align 4
  %55 = add nsw i32 %54, %53
  store i32 %55, i32* %3, align 4
  %56 = load i32, i32* %8, align 4
  %57 = mul nsw i32 %56, 10
  store i32 %57, i32* %8, align 4
  br label %58

58:                                               ; preds = %45
  %59 = load i32, i32* %7, align 4
  %60 = add nsw i32 %59, 1
  store i32 %60, i32* %7, align 4
  br label %41

61:                                               ; preds = %41
  %62 = load i32, i32* %3, align 4
  ret i32 %62
}

; Function Attrs: noinline nounwind uwtable
define dso_local i32 @main() #0 {
  %1 = alloca i32, align 4
  %2 = alloca i32, align 4
  %3 = alloca [6 x i32], align 16
  %4 = alloca i32, align 4
  store i32 0, i32* %1, align 4
  store i32 0, i32* %2, align 4
  br label %5

5:                                                ; preds = %34, %0
  %6 = load i32, i32* %2, align 4
  %7 = icmp slt i32 %6, 6
  br i1 %7, label %8, label %37

8:                                                ; preds = %5
  %9 = call i32 (i8*, ...) @__isoc99_scanf(i8* getelementptr inbounds ([3 x i8], [3 x i8]* @.str, i64 0, i64 0), i32* %4)
  %10 = load i32, i32* %4, align 4
  %11 = icmp eq i32 %10, 0
  br i1 %11, label %12, label %16

12:                                               ; preds = %8
  %13 = load i32, i32* %2, align 4
  %14 = sext i32 %13 to i64
  %15 = getelementptr inbounds [6 x i32], [6 x i32]* %3, i64 0, i64 %14
  store i32 0, i32* %15, align 4
  br label %16

16:                                               ; preds = %12, %8
  %17 = load i32, i32* %4, align 4
  %18 = icmp slt i32 %17, 0
  br i1 %18, label %19, label %27

19:                                               ; preds = %16
  %20 = load i32, i32* %4, align 4
  %21 = call i32 @abs(i32 %20) #3
  %22 = call i32 @fanxu(i32 %21)
  %23 = mul nsw i32 -1, %22
  %24 = load i32, i32* %2, align 4
  %25 = sext i32 %24 to i64
  %26 = getelementptr inbounds [6 x i32], [6 x i32]* %3, i64 0, i64 %25
  store i32 %23, i32* %26, align 4
  br label %33

27:                                               ; preds = %16
  %28 = load i32, i32* %4, align 4
  %29 = call i32 @fanxu(i32 %28)
  %30 = load i32, i32* %2, align 4
  %31 = sext i32 %30 to i64
  %32 = getelementptr inbounds [6 x i32], [6 x i32]* %3, i64 0, i64 %31
  store i32 %29, i32* %32, align 4
  br label %33

33:                                               ; preds = %27, %19
  br label %34

34:                                               ; preds = %33
  %35 = load i32, i32* %2, align 4
  %36 = add nsw i32 %35, 1
  store i32 %36, i32* %2, align 4
  br label %5

37:                                               ; preds = %5
  store i32 0, i32* %2, align 4
  br label %38

38:                                               ; preds = %47, %37
  %39 = load i32, i32* %2, align 4
  %40 = icmp slt i32 %39, 6
  br i1 %40, label %41, label %50

41:                                               ; preds = %38
  %42 = load i32, i32* %2, align 4
  %43 = sext i32 %42 to i64
  %44 = getelementptr inbounds [6 x i32], [6 x i32]* %3, i64 0, i64 %43
  %45 = load i32, i32* %44, align 4
  %46 = call i32 (i8*, ...) @printf(i8* getelementptr inbounds ([4 x i8], [4 x i8]* @.str.1, i64 0, i64 0), i32 %45)
  br label %47

47:                                               ; preds = %41
  %48 = load i32, i32* %2, align 4
  %49 = add nsw i32 %48, 1
  store i32 %49, i32* %2, align 4
  br label %38

50:                                               ; preds = %38
  ret i32 0
}

declare dso_local i32 @__isoc99_scanf(i8*, ...) #1

; Function Attrs: nounwind readnone
declare dso_local i32 @abs(i32) #2

declare dso_local i32 @printf(i8*, ...) #1


!llvm.module.flags = !{!0}
!llvm.ident = !{!1}

!0 = !{i32 1, !"wchar_size", i32 4}
!1 = !{!"clang version 10.0.0-4ubuntu1 "}
